target datalayout = "e-m:e-p270:32:32-p271:32:32-p272:64:64-i64:64-i128:128-f80:128-n8:16:32:64-S128"
target triple = "x86_64-unknown-linux-gnu"

%"class.QuantLib::Date" = type { i64 }

; Function Attrs: inlinehint mustprogress nounwind uwtable
define linkonce_odr noundef double @_ZSt3powIdiEN9__gnu_cxx9__promoteIDTplcvNS1_IT_Xsr3std12__is_integerIS2_EE7__valueEE6__typeELi0EcvNS1_IT0_Xsr3std12__is_integerIS5_EE7__valueEE6__typeELi0EEXsr3std12__is_integerIS8_EE7__valueEE6__typeES2_S5_(double noundef %__x, i32 noundef %__y) #5 comdat {
entry:
  %__x.addr = alloca double, align 8
  %__y.addr = alloca i32, align 4
  store double %__x, ptr %__x.addr, align 8, !tbaa !32
  store i32 %__y, ptr %__y.addr, align 4, !tbaa !30
  %0 = load double, ptr %__x.addr, align 8, !tbaa !32
  %1 = load i32, ptr %__y.addr, align 4, !tbaa !30
  %conv = sitofp i32 %1 to double
  %call = call double @pow(double noundef %0, double noundef %conv) #16, !tbaa !30
  ret double %call
}

; Function Attrs: mustprogress uwtable
define noundef double @_ZN8QuantLib12CallableBond18effectiveConvexityEdRKNS_6HandleINS_18YieldTermStructureEEERKNS_10DayCounterENS_11CompoundingENS_9FrequencyEd(ptr noundef nonnull align 8 dereferenceable(304) %this, double noundef %oas, ptr noundef nonnull align 8 dereferenceable(16) %engineTS, ptr noundef nonnull align 8 dereferenceable(16) %dayCounter, i32 noundef %compounding, i32 noundef %frequency, double noundef %bump) #2 align 2 {
entry:
  %retval = alloca double, align 8
  %this.addr = alloca ptr, align 8
  %oas.addr = alloca double, align 8
  %engineTS.addr = alloca ptr, align 8
  %dayCounter.addr = alloca ptr, align 8
  %compounding.addr = alloca i32, align 4
  %frequency.addr = alloca i32, align 4
  %bump.addr = alloca double, align 8
  %P = alloca double, align 8
  %agg.tmp = alloca %"class.QuantLib::Date", align 8
  %Ppp = alloca double, align 8
  %agg.tmp2 = alloca %"class.QuantLib::Date", align 8
  %Pmm = alloca double, align 8
  %agg.tmp5 = alloca %"class.QuantLib::Date", align 8
  %cleanup.dest.slot = alloca i32, align 4
  store ptr %this, ptr %this.addr, align 8, !tbaa !3
  store double %oas, ptr %oas.addr, align 8, !tbaa !32
  store ptr %engineTS, ptr %engineTS.addr, align 8, !tbaa !3
  store ptr %dayCounter, ptr %dayCounter.addr, align 8, !tbaa !3
  store i32 %compounding, ptr %compounding.addr, align 4, !tbaa !124
  store i32 %frequency, ptr %frequency.addr, align 4, !tbaa !126
  store double %bump, ptr %bump.addr, align 8, !tbaa !32
  %this1 = load ptr, ptr %this.addr, align 8
  call void @llvm.lifetime.start.p0(i64 8, ptr %P) #16
  %0 = load double, ptr %oas.addr, align 8, !tbaa !32
  %1 = load ptr, ptr %engineTS.addr, align 8, !tbaa !3
  %2 = load ptr, ptr %dayCounter.addr, align 8, !tbaa !3
  %3 = load i32, ptr %compounding.addr, align 4, !tbaa !124
  %4 = load i32, ptr %frequency.addr, align 4, !tbaa !126
  call void @_ZN8QuantLib4DateC1Ev(ptr noundef nonnull align 8 dereferenceable(8) %agg.tmp)
  %coerce.dive = getelementptr inbounds nuw %"class.QuantLib::Date", ptr %agg.tmp, i32 0, i32 0
  %5 = load i64, ptr %coerce.dive, align 8
  %call = call noundef double @_ZN8QuantLib12CallableBond13cleanPriceOASEdRKNS_6HandleINS_18YieldTermStructureEEERKNS_10DayCounterENS_11CompoundingENS_9FrequencyENS_4DateE(ptr noundef nonnull align 8 dereferenceable(304) %this1, double noundef %0, ptr noundef nonnull align 8 dereferenceable(16) %1, ptr noundef nonnull align 8 dereferenceable(16) %2, i32 noundef %3, i32 noundef %4, i64 %5)
  store double %call, ptr %P, align 8, !tbaa !32
  call void @llvm.lifetime.start.p0(i64 8, ptr %Ppp) #16
  %6 = load double, ptr %oas.addr, align 8, !tbaa !32
  %7 = load double, ptr %bump.addr, align 8, !tbaa !32
  %add = fadd double %6, %7
  %8 = load ptr, ptr %engineTS.addr, align 8, !tbaa !3
  %9 = load ptr, ptr %dayCounter.addr, align 8, !tbaa !3
  %10 = load i32, ptr %compounding.addr, align 4, !tbaa !124
  %11 = load i32, ptr %frequency.addr, align 4, !tbaa !126
  call void @_ZN8QuantLib4DateC1Ev(ptr noundef nonnull align 8 dereferenceable(8) %agg.tmp2)
  %coerce.dive3 = getelementptr inbounds nuw %"class.QuantLib::Date", ptr %agg.tmp2, i32 0, i32 0
  %12 = load i64, ptr %coerce.dive3, align 8
  %call4 = call noundef double @_ZN8QuantLib12CallableBond13cleanPriceOASEdRKNS_6HandleINS_18YieldTermStructureEEERKNS_10DayCounterENS_11CompoundingENS_9FrequencyENS_4DateE(ptr noundef nonnull align 8 dereferenceable(304) %this1, double noundef %add, ptr noundef nonnull align 8 dereferenceable(16) %8, ptr noundef nonnull align 8 dereferenceable(16) %9, i32 noundef %10, i32 noundef %11, i64 %12)
  store double %call4, ptr %Ppp, align 8, !tbaa !32
  call void @llvm.lifetime.start.p0(i64 8, ptr %Pmm) #16
  %13 = load double, ptr %oas.addr, align 8, !tbaa !32
  %14 = load double, ptr %bump.addr, align 8, !tbaa !32
  %sub = fsub double %13, %14
  %15 = load ptr, ptr %engineTS.addr, align 8, !tbaa !3
  %16 = load ptr, ptr %dayCounter.addr, align 8, !tbaa !3
  %17 = load i32, ptr %compounding.addr, align 4, !tbaa !124
  %18 = load i32, ptr %frequency.addr, align 4, !tbaa !126
  call void @_ZN8QuantLib4DateC1Ev(ptr noundef nonnull align 8 dereferenceable(8) %agg.tmp5)
  %coerce.dive6 = getelementptr inbounds nuw %"class.QuantLib::Date", ptr %agg.tmp5, i32 0, i32 0
  %19 = load i64, ptr %coerce.dive6, align 8
  %call7 = call noundef double @_ZN8QuantLib12CallableBond13cleanPriceOASEdRKNS_6HandleINS_18YieldTermStructureEEERKNS_10DayCounterENS_11CompoundingENS_9FrequencyENS_4DateE(ptr noundef nonnull align 8 dereferenceable(304) %this1, double noundef %sub, ptr noundef nonnull align 8 dereferenceable(16) %15, ptr noundef nonnull align 8 dereferenceable(16) %16, i32 noundef %17, i32 noundef %18, i64 %19)
  store double %call7, ptr %Pmm, align 8, !tbaa !32
  %20 = load double, ptr %P, align 8, !tbaa !32
  %cmp = fcmp oeq double %20, 0.000000e+00
  br i1 %cmp, label %if.then, label %if.else

if.then:                                          ; preds = %entry
  store double 0.000000e+00, ptr %retval, align 8
  store i32 1, ptr %cleanup.dest.slot, align 4
  br label %cleanup

if.else:                                          ; preds = %entry
  %21 = load double, ptr %Ppp, align 8, !tbaa !32
  %22 = load double, ptr %Pmm, align 8, !tbaa !32
  %add8 = fadd double %21, %22
  %23 = load double, ptr %P, align 8, !tbaa !32
  %24 = call double @llvm.fmuladd.f64(double -2.000000e+00, double %23, double %add8)
  %25 = load double, ptr %bump.addr, align 8, !tbaa !32
  %call9 = call noundef double @_ZSt3powIdiEN9__gnu_cxx9__promoteIDTplcvNS1_IT_Xsr3std12__is_integerIS2_EE7__valueEE6__typeELi0EcvNS1_IT0_Xsr3std12__is_integerIS5_EE7__valueEE6__typeELi0EEXsr3std12__is_integerIS8_EE7__valueEE6__typeES2_S5_(double noundef %25, i32 noundef 2)
  %26 = load double, ptr %P, align 8, !tbaa !32
  %mul = fmul double %call9, %26
  %div = fdiv double %24, %mul
  store double %div, ptr %retval, align 8
  store i32 1, ptr %cleanup.dest.slot, align 4
  br label %cleanup

cleanup:                                          ; preds = %if.else, %if.then
  call void @llvm.lifetime.end.p0(i64 8, ptr %Pmm) #16
  call void @llvm.lifetime.end.p0(i64 8, ptr %Ppp) #16
  call void @llvm.lifetime.end.p0(i64 8, ptr %P) #16
  %27 = load double, ptr %retval, align 8
  ret double %27
}