; Function Attrs: mustprogress uwtable
define noundef double @_ZN8QuantLib12CallableBond18effectiveConvexityEdRKNS_6HandleINS_18YieldTermStructureEEERKNS_10DayCounterENS_11CompoundingENS_9FrequencyEd(ptr noundef nonnull align 8 dereferenceable(304) %this, double noundef %oas, ptr noundef nonnull align 8 dereferenceable(16) %engineTS, ptr noundef nonnull align 8 dereferenceable(16) %dayCounter, i32 noundef %compounding, i32 noundef %frequency, double noundef %bump) local_unnamed_addr #8 align 2 {
entry:
  %agg.tmp = alloca %"class.QuantLib::Date", align 8
  %agg.tmp2 = alloca %"class.QuantLib::Date", align 8
  %agg.tmp5 = alloca %"class.QuantLib::Date", align 8
  call void @_ZN8QuantLib4DateC1Ev(ptr noundef nonnull align 8 dereferenceable(8) %agg.tmp)
  %0 = load i64, ptr %agg.tmp, align 8
  %call = call noundef double @_ZN8QuantLib12CallableBond13cleanPriceOASEdRKNS_6HandleINS_18YieldTermStructureEEERKNS_10DayCounterENS_11CompoundingENS_9FrequencyENS_4DateE(ptr noundef nonnull align 8 dereferenceable(304) %this, double noundef %oas, ptr noundef nonnull align 8 dereferenceable(16) %engineTS, ptr noundef nonnull align 8 dereferenceable(16) %dayCounter, i32 noundef %compounding, i32 noundef %frequency, i64 %0)
  %add = fadd double %oas, %bump
  call void @_ZN8QuantLib4DateC1Ev(ptr noundef nonnull align 8 dereferenceable(8) %agg.tmp2)
  %1 = load i64, ptr %agg.tmp2, align 8
  %call4 = call noundef double @_ZN8QuantLib12CallableBond13cleanPriceOASEdRKNS_6HandleINS_18YieldTermStructureEEERKNS_10DayCounterENS_11CompoundingENS_9FrequencyENS_4DateE(ptr noundef nonnull align 8 dereferenceable(304) %this, double noundef %add, ptr noundef nonnull align 8 dereferenceable(16) %engineTS, ptr noundef nonnull align 8 dereferenceable(16) %dayCounter, i32 noundef %compounding, i32 noundef %frequency, i64 %1)
  %sub = fsub double %oas, %bump
  call void @_ZN8QuantLib4DateC1Ev(ptr noundef nonnull align 8 dereferenceable(8) %agg.tmp5)
  %2 = load i64, ptr %agg.tmp5, align 8
  %call7 = call noundef double @_ZN8QuantLib12CallableBond13cleanPriceOASEdRKNS_6HandleINS_18YieldTermStructureEEERKNS_10DayCounterENS_11CompoundingENS_9FrequencyENS_4DateE(ptr noundef nonnull align 8 dereferenceable(304) %this, double noundef %sub, ptr noundef nonnull align 8 dereferenceable(16) %engineTS, ptr noundef nonnull align 8 dereferenceable(16) %dayCounter, i32 noundef %compounding, i32 noundef %frequency, i64 %2)
  %cmp = fcmp oeq double %call, 0.000000e+00
  br i1 %cmp, label %cleanup, label %if.else

if.else:                                          ; preds = %entry
  %add8 = fadd double %call4, %call7
  %3 = call double @llvm.fmuladd.f64(double %call, double -2.000000e+00, double %add8)
  %square = fmul double %bump, %bump
  %mul = fmul double %square, %call
  %div = fdiv double %3, %mul
  br label %cleanup

cleanup:                                          ; preds = %entry, %if.else
  %retval.0 = phi double [ %div, %if.else ], [ 0.000000e+00, %entry ]
  ret double %retval.0
}